; Function Attrs: nofree norecurse nosync nounwind memory(read, argmem: readwrite, inaccessiblemem: none) uwtable
define hidden range(i32 0, 2) i32 @CBS_get_u24(ptr noundef captures(none) %0, ptr noundef writeonly captures(none) %1) local_unnamed_addr #10 {
  %3 = getelementptr inbounds nuw i8, ptr %0, i64 8
  %4 = load i64, ptr %3, align 8, !tbaa !13
  %5 = icmp ult i64 %4, 3
  br i1 %5, label %cbs_get_u.exit, label %cbs_get.exit.i

cbs_get.exit.i:                                   ; preds = %2
  %6 = load ptr, ptr %0, align 8, !tbaa !6
  %7 = getelementptr inbounds nuw i8, ptr %6, i64 3
  store ptr %7, ptr %0, align 8, !tbaa !6
  %8 = add i64 %4, -3
  store i64 %8, ptr %3, align 8, !tbaa !13
  br label %9

9:                                                ; preds = %9, %cbs_get.exit.i
  %.017.i = phi i64 [ 0, %cbs_get.exit.i ], [ %15, %9 ]
  %.01016.i = phi i32 [ 0, %cbs_get.exit.i ], [ %14, %9 ]
  %10 = shl i32 %.01016.i, 8
  %11 = getelementptr inbounds nuw i8, ptr %6, i64 %.017.i
  %12 = load i8, ptr %11, align 1, !tbaa !16
  %13 = zext i8 %12 to i32
  %14 = or disjoint i32 %10, %13
  %15 = add nuw nsw i64 %.017.i, 1
  %exitcond.not.i = icmp eq i64 %15, 3
  br i1 %exitcond.not.i, label %16, label %9, !llvm.loop !17

16:                                               ; preds = %9
  store i32 %14, ptr %1, align 4, !tbaa !21
  br label %cbs_get_u.exit

cbs_get_u.exit:                                   ; preds = %2, %16
  %.011.i = phi i32 [ 1, %16 ], [ 0, %2 ]
  ret i32 %.011.i
}